target datalayout = "e-m:e-p270:32:32-p271:32:32-p272:64:64-i64:64-i128:128-f80:128-n8:16:32:64-S128"
target triple = "x86_64-pc-linux-gnu"

%struct.WindowAggState = type { %struct.ScanState, ptr, i32, i32, ptr, ptr, ptr, ptr, ptr, i32, i32, i32, i32, i64, i64, i64, i64, ptr, i64, i64, i32, i32, ptr, ptr, i64, i64, %struct.FmgrInfo, %struct.FmgrInfo, i32, i8, i8, i8, i8, ptr, i64, i64, i64, i64, i64, ptr, ptr, ptr, ptr, i8, i8, i8, i8, i8, i8, i8, ptr, ptr, ptr, ptr, ptr, ptr }
%struct.ScanState = type { %struct.PlanState, ptr, ptr, ptr }
%struct.PlanState = type { i32, ptr, ptr, ptr, ptr, ptr, ptr, ptr, ptr, ptr, ptr, ptr, ptr, ptr, ptr, ptr, ptr, ptr, i8, ptr, ptr, ptr, ptr, ptr, i8, i8, i8, i8, i8, i8, i8, i8 }
%struct.FmgrInfo = type { ptr, i32, i16, i8, i8, i8, ptr, ptr, ptr }
%struct.ExprContext = type { i32, ptr, ptr, ptr, ptr, ptr, ptr, ptr, ptr, ptr, i64, i8, i64, i8, ptr, ptr, ptr, ptr }
%struct.ExprState = type { i32, i8, i8, i64, ptr, ptr, ptr, ptr, ptr, i32, i32, ptr, ptr, ptr, ptr, ptr, ptr, ptr }

@CurrentMemoryContext = external global ptr, align 8
@.str.3 = private unnamed_addr constant [16 x i8] c"nodeWindowAgg.c\00", align 1
@.str.10 = private unnamed_addr constant [39 x i8] c"frame starting offset must not be null\00", align 1
@__func__.calculate_frame_offsets = private unnamed_addr constant [24 x i8] c"calculate_frame_offsets\00", align 1
@.str.11 = private unnamed_addr constant [43 x i8] c"frame starting offset must not be negative\00", align 1
@.str.12 = private unnamed_addr constant [37 x i8] c"frame ending offset must not be null\00", align 1
@.str.13 = private unnamed_addr constant [41 x i8] c"frame ending offset must not be negative\00", align 1

; Function Attrs: inlinehint nounwind uwtable
define internal ptr @MemoryContextSwitchTo(ptr noundef %0) #2 {
  %2 = alloca ptr, align 8
  %3 = alloca ptr, align 8
  store ptr %0, ptr %2, align 8
  call void @llvm.lifetime.start.p0(i64 8, ptr %3) #8
  %4 = load ptr, ptr @CurrentMemoryContext, align 8
  store ptr %4, ptr %3, align 8
  %5 = load ptr, ptr %2, align 8
  store ptr %5, ptr @CurrentMemoryContext, align 8
  %6 = load ptr, ptr %3, align 8
  call void @llvm.lifetime.end.p0(i64 8, ptr %3) #8
  ret ptr %6
}

; Function Attrs: inlinehint nounwind uwtable
define internal i64 @DatumGetInt64(i64 noundef %0) #2 {
  %2 = alloca i64, align 8
  store i64 %0, ptr %2, align 8
  %3 = load i64, ptr %2, align 8
  ret i64 %3
}

; Function Attrs: inlinehint nounwind uwtable
define internal i64 @ExecEvalExprSwitchContext(ptr noundef %0, ptr noundef %1, ptr noundef %2) #2 {
  %4 = alloca ptr, align 8
  %5 = alloca ptr, align 8
  %6 = alloca ptr, align 8
  %7 = alloca i64, align 8
  %8 = alloca ptr, align 8
  store ptr %0, ptr %4, align 8
  store ptr %1, ptr %5, align 8
  store ptr %2, ptr %6, align 8
  call void @llvm.lifetime.start.p0(i64 8, ptr %7) #8
  call void @llvm.lifetime.start.p0(i64 8, ptr %8) #8
  %9 = load ptr, ptr %5, align 8
  %10 = getelementptr inbounds nuw %struct.ExprContext, ptr %9, i32 0, i32 5
  %11 = load ptr, ptr %10, align 8
  %12 = call ptr @MemoryContextSwitchTo(ptr noundef %11)
  store ptr %12, ptr %8, align 8
  %13 = load ptr, ptr %4, align 8
  %14 = getelementptr inbounds nuw %struct.ExprState, ptr %13, i32 0, i32 6
  %15 = load ptr, ptr %14, align 8
  %16 = load ptr, ptr %4, align 8
  %17 = load ptr, ptr %5, align 8
  %18 = load ptr, ptr %6, align 8
  %19 = call i64 %15(ptr noundef %16, ptr noundef %17, ptr noundef %18)
  store i64 %19, ptr %7, align 8
  %20 = load ptr, ptr %8, align 8
  %21 = call ptr @MemoryContextSwitchTo(ptr noundef %20)
  %22 = load i64, ptr %7, align 8
  call void @llvm.lifetime.end.p0(i64 8, ptr %8) #8
  call void @llvm.lifetime.end.p0(i64 8, ptr %7) #8
  ret i64 %22
}

; Function Attrs: noinline nounwind uwtable
define internal void @calculate_frame_offsets(ptr noundef %0) #7 {
  %2 = alloca ptr, align 8
  %3 = alloca ptr, align 8
  %4 = alloca ptr, align 8
  %5 = alloca i32, align 4
  %6 = alloca i64, align 8
  %7 = alloca i8, align 1
  %8 = alloca i16, align 2
  %9 = alloca i8, align 1
  %10 = alloca i64, align 8
  %11 = alloca i64, align 8
  store ptr %0, ptr %2, align 8
  call void @llvm.lifetime.start.p0(i64 8, ptr %3) #8
  %12 = load ptr, ptr %2, align 8
  store ptr %12, ptr %3, align 8
  call void @llvm.lifetime.start.p0(i64 8, ptr %4) #8
  call void @llvm.lifetime.start.p0(i64 4, ptr %5) #8
  %13 = load ptr, ptr %3, align 8
  %14 = getelementptr inbounds nuw %struct.WindowAggState, ptr %13, i32 0, i32 21
  %15 = load i32, ptr %14, align 4
  store i32 %15, ptr %5, align 4
  call void @llvm.lifetime.start.p0(i64 8, ptr %6) #8
  call void @llvm.lifetime.start.p0(i64 1, ptr %7) #8
  call void @llvm.lifetime.start.p0(i64 2, ptr %8) #8
  call void @llvm.lifetime.start.p0(i64 1, ptr %9) #8
  %16 = load ptr, ptr %3, align 8
  %17 = getelementptr inbounds nuw %struct.WindowAggState, ptr %16, i32 0, i32 0
  %18 = getelementptr inbounds nuw %struct.ScanState, ptr %17, i32 0, i32 0
  %19 = getelementptr inbounds nuw %struct.PlanState, ptr %18, i32 0, i32 16
  %20 = load ptr, ptr %19, align 8
  store ptr %20, ptr %4, align 8
  %21 = load i32, ptr %5, align 4
  %22 = and i32 %21, 10240
  %23 = icmp ne i32 %22, 0
  br i1 %23, label %24, label %81

24:                                               ; preds = %1
  %25 = load ptr, ptr %3, align 8
  %26 = getelementptr inbounds nuw %struct.WindowAggState, ptr %25, i32 0, i32 22
  %27 = load ptr, ptr %26, align 8
  %28 = load ptr, ptr %4, align 8
  %29 = call i64 @ExecEvalExprSwitchContext(ptr noundef %27, ptr noundef %28, ptr noundef %7)
  store i64 %29, ptr %6, align 8
  %30 = load i8, ptr %7, align 1, !range !4, !noundef !5
  %31 = trunc i8 %30 to i1
  br i1 %31, label %32, label %44

32:                                               ; preds = %24
  br label %33

33:                                               ; preds = %32
  br i1 true, label %34, label %36

34:                                               ; preds = %33
  %35 = call zeroext i1 @errstart_cold(i32 noundef 21, ptr noundef null) #9
  br i1 %35, label %38, label %41

36:                                               ; preds = %33
  %37 = call zeroext i1 @errstart(i32 noundef 21, ptr noundef null)
  br i1 %37, label %38, label %41

38:                                               ; preds = %36, %34
  %39 = call i32 @errcode(i32 noundef 67108994)
  %40 = call i32 (ptr, ...) @errmsg(ptr noundef @.str.10)
  call void @errfinish(ptr noundef @.str.3, i32 noundef 2106, ptr noundef @__func__.calculate_frame_offsets)
  br label %41

41:                                               ; preds = %38, %36, %34
  unreachable

42:                                               ; No predecessors!
  br label %43

43:                                               ; preds = %42
  br label %44

44:                                               ; preds = %43, %24
  %45 = load ptr, ptr %3, align 8
  %46 = getelementptr inbounds nuw %struct.WindowAggState, ptr %45, i32 0, i32 22
  %47 = load ptr, ptr %46, align 8
  %48 = getelementptr inbounds nuw %struct.ExprState, ptr %47, i32 0, i32 7
  %49 = load ptr, ptr %48, align 8
  %50 = call i32 @exprType(ptr noundef %49)
  call void @get_typlenbyval(i32 noundef %50, ptr noundef %8, ptr noundef %9)
  %51 = load i64, ptr %6, align 8
  %52 = load i8, ptr %9, align 1, !range !4, !noundef !5
  %53 = trunc i8 %52 to i1
  %54 = load i16, ptr %8, align 2
  %55 = sext i16 %54 to i32
  %56 = call i64 @datumCopy(i64 noundef %51, i1 noundef zeroext %53, i32 noundef %55)
  %57 = load ptr, ptr %3, align 8
  %58 = getelementptr inbounds nuw %struct.WindowAggState, ptr %57, i32 0, i32 24
  store i64 %56, ptr %58, align 8
  %59 = load i32, ptr %5, align 4
  %60 = and i32 %59, 12
  %61 = icmp ne i32 %60, 0
  br i1 %61, label %62, label %80

62:                                               ; preds = %44
  call void @llvm.lifetime.start.p0(i64 8, ptr %10) #8
  %63 = load i64, ptr %6, align 8
  %64 = call i64 @DatumGetInt64(i64 noundef %63)
  store i64 %64, ptr %10, align 8
  %65 = load i64, ptr %10, align 8
  %66 = icmp slt i64 %65, 0
  br i1 %66, label %67, label %79

67:                                               ; preds = %62
  br label %68

68:                                               ; preds = %67
  br i1 true, label %69, label %71

69:                                               ; preds = %68
  %70 = call zeroext i1 @errstart_cold(i32 noundef 21, ptr noundef null) #9
  br i1 %70, label %73, label %76

71:                                               ; preds = %68
  %72 = call zeroext i1 @errstart(i32 noundef 21, ptr noundef null)
  br i1 %72, label %73, label %76

73:                                               ; preds = %71, %69
  %74 = call i32 @errcode(i32 noundef 50593922)
  %75 = call i32 (ptr, ...) @errmsg(ptr noundef @.str.11)
  call void @errfinish(ptr noundef @.str.3, i32 noundef 2120, ptr noundef @__func__.calculate_frame_offsets)
  br label %76

76:                                               ; preds = %73, %71, %69
  unreachable

77:                                               ; No predecessors!
  br label %78

78:                                               ; preds = %77
  br label %79

79:                                               ; preds = %78, %62
  call void @llvm.lifetime.end.p0(i64 8, ptr %10) #8
  br label %80

80:                                               ; preds = %79, %44
  br label %81

81:                                               ; preds = %80, %1
  %82 = load i32, ptr %5, align 4
  %83 = and i32 %82, 20480
  %84 = icmp ne i32 %83, 0
  br i1 %84, label %85, label %142

85:                                               ; preds = %81
  %86 = load ptr, ptr %3, align 8
  %87 = getelementptr inbounds nuw %struct.WindowAggState, ptr %86, i32 0, i32 23
  %88 = load ptr, ptr %87, align 8
  %89 = load ptr, ptr %4, align 8
  %90 = call i64 @ExecEvalExprSwitchContext(ptr noundef %88, ptr noundef %89, ptr noundef %7)
  store i64 %90, ptr %6, align 8
  %91 = load i8, ptr %7, align 1, !range !4, !noundef !5
  %92 = trunc i8 %91 to i1
  br i1 %92, label %93, label %105

93:                                               ; preds = %85
  br label %94

94:                                               ; preds = %93
  br i1 true, label %95, label %97

95:                                               ; preds = %94
  %96 = call zeroext i1 @errstart_cold(i32 noundef 21, ptr noundef null) #9
  br i1 %96, label %99, label %102

97:                                               ; preds = %94
  %98 = call zeroext i1 @errstart(i32 noundef 21, ptr noundef null)
  br i1 %98, label %99, label %102

99:                                               ; preds = %97, %95
  %100 = call i32 @errcode(i32 noundef 67108994)
  %101 = call i32 (ptr, ...) @errmsg(ptr noundef @.str.12)
  call void @errfinish(ptr noundef @.str.3, i32 noundef 2133, ptr noundef @__func__.calculate_frame_offsets)
  br label %102

102:                                              ; preds = %99, %97, %95
  unreachable

103:                                              ; No predecessors!
  br label %104

104:                                              ; preds = %103
  br label %105

105:                                              ; preds = %104, %85
  %106 = load ptr, ptr %3, align 8
  %107 = getelementptr inbounds nuw %struct.WindowAggState, ptr %106, i32 0, i32 23
  %108 = load ptr, ptr %107, align 8
  %109 = getelementptr inbounds nuw %struct.ExprState, ptr %108, i32 0, i32 7
  %110 = load ptr, ptr %109, align 8
  %111 = call i32 @exprType(ptr noundef %110)
  call void @get_typlenbyval(i32 noundef %111, ptr noundef %8, ptr noundef %9)
  %112 = load i64, ptr %6, align 8
  %113 = load i8, ptr %9, align 1, !range !4, !noundef !5
  %114 = trunc i8 %113 to i1
  %115 = load i16, ptr %8, align 2
  %116 = sext i16 %115 to i32
  %117 = call i64 @datumCopy(i64 noundef %112, i1 noundef zeroext %114, i32 noundef %116)
  %118 = load ptr, ptr %3, align 8
  %119 = getelementptr inbounds nuw %struct.WindowAggState, ptr %118, i32 0, i32 25
  store i64 %117, ptr %119, align 8
  %120 = load i32, ptr %5, align 4
  %121 = and i32 %120, 12
  %122 = icmp ne i32 %121, 0
  br i1 %122, label %123, label %141

123:                                              ; preds = %105
  call void @llvm.lifetime.start.p0(i64 8, ptr %11) #8
  %124 = load i64, ptr %6, align 8
  %125 = call i64 @DatumGetInt64(i64 noundef %124)
  store i64 %125, ptr %11, align 8
  %126 = load i64, ptr %11, align 8
  %127 = icmp slt i64 %126, 0
  br i1 %127, label %128, label %140

128:                                              ; preds = %123
  br label %129

129:                                              ; preds = %128
  br i1 true, label %130, label %132

130:                                              ; preds = %129
  %131 = call zeroext i1 @errstart_cold(i32 noundef 21, ptr noundef null) #9
  br i1 %131, label %134, label %137

132:                                              ; preds = %129
  %133 = call zeroext i1 @errstart(i32 noundef 21, ptr noundef null)
  br i1 %133, label %134, label %137

134:                                              ; preds = %132, %130
  %135 = call i32 @errcode(i32 noundef 50593922)
  %136 = call i32 (ptr, ...) @errmsg(ptr noundef @.str.13)
  call void @errfinish(ptr noundef @.str.3, i32 noundef 2147, ptr noundef @__func__.calculate_frame_offsets)
  br label %137

137:                                              ; preds = %134, %132, %130
  unreachable

138:                                              ; No predecessors!
  br label %139

139:                                              ; preds = %138
  br label %140

140:                                              ; preds = %139, %123
  call void @llvm.lifetime.end.p0(i64 8, ptr %11) #8
  br label %141

141:                                              ; preds = %140, %105
  br label %142

142:                                              ; preds = %141, %81
  %143 = load ptr, ptr %3, align 8
  %144 = getelementptr inbounds nuw %struct.WindowAggState, ptr %143, i32 0, i32 43
  store i8 0, ptr %144, align 8
  call void @llvm.lifetime.end.p0(i64 1, ptr %9) #8
  call void @llvm.lifetime.end.p0(i64 2, ptr %8) #8
  call void @llvm.lifetime.end.p0(i64 1, ptr %7) #8
  call void @llvm.lifetime.end.p0(i64 8, ptr %6) #8
  call void @llvm.lifetime.end.p0(i64 4, ptr %5) #8
  call void @llvm.lifetime.end.p0(i64 8, ptr %4) #8
  call void @llvm.lifetime.end.p0(i64 8, ptr %3) #8
  ret void
}