; Function Attrs: noinline nounwind uwtable
define internal fastcc void @calculate_frame_offsets(ptr noundef captures(none) %0) unnamed_addr #6 {
  %2 = alloca i8, align 1
  %3 = alloca i16, align 2
  %4 = alloca i8, align 1
  %5 = getelementptr inbounds nuw i8, ptr %0, i64 356
  %6 = load i32, ptr %5, align 4
  call void @llvm.lifetime.start.p0(i64 1, ptr nonnull %2) #9
  call void @llvm.lifetime.start.p0(i64 2, ptr nonnull %3) #9
  call void @llvm.lifetime.start.p0(i64 1, ptr nonnull %4) #9
  %7 = getelementptr inbounds nuw i8, ptr %0, i64 128
  %8 = load ptr, ptr %7, align 8
  %9 = and i32 %6, 10240
  %.not = icmp eq i32 %9, 0
  br i1 %.not, label %42, label %10

10:                                               ; preds = %1
  %11 = getelementptr inbounds nuw i8, ptr %0, i64 360
  %12 = load ptr, ptr %11, align 8
  %13 = getelementptr inbounds nuw i8, ptr %8, i64 40
  %14 = load ptr, ptr %13, align 8
  %15 = load ptr, ptr @CurrentMemoryContext, align 8
  store ptr %14, ptr @CurrentMemoryContext, align 8
  %16 = getelementptr inbounds nuw i8, ptr %12, i64 32
  %17 = load ptr, ptr %16, align 8
  %18 = call i64 %17(ptr noundef %12, ptr noundef %8, ptr noundef nonnull %2) #9
  store ptr %15, ptr @CurrentMemoryContext, align 8
  %19 = load i8, ptr %2, align 1, !range !4, !noundef !5
  %20 = trunc nuw i8 %19 to i1
  br i1 %20, label %21, label %25

21:                                               ; preds = %10
  %22 = call zeroext i1 @errstart_cold(i32 noundef 21, ptr noundef null) #10
  call void @llvm.assume(i1 %22)
  %23 = call i32 @errcode(i32 noundef 67108994) #9
  %24 = call i32 (ptr, ...) @errmsg(ptr noundef nonnull @.str.10) #9
  call void @errfinish(ptr noundef nonnull @.str.3, i32 noundef 2106, ptr noundef nonnull @__func__.calculate_frame_offsets) #9
  unreachable

25:                                               ; preds = %10
  %26 = load ptr, ptr %11, align 8
  %27 = getelementptr inbounds nuw i8, ptr %26, i64 40
  %28 = load ptr, ptr %27, align 8
  %29 = call i32 @exprType(ptr noundef %28) #9
  call void @get_typlenbyval(i32 noundef %29, ptr noundef nonnull %3, ptr noundef nonnull %4) #9
  %30 = load i8, ptr %4, align 1, !range !4, !noundef !5
  %31 = trunc nuw i8 %30 to i1
  %32 = load i16, ptr %3, align 2
  %33 = sext i16 %32 to i32
  %34 = call i64 @datumCopy(i64 noundef %18, i1 noundef zeroext %31, i32 noundef %33) #9
  %35 = getelementptr inbounds nuw i8, ptr %0, i64 376
  store i64 %34, ptr %35, align 8
  %36 = and i32 %6, 12
  %.not21 = icmp ne i32 %36, 0
  %37 = icmp slt i64 %18, 0
  %or.cond = select i1 %.not21, i1 %37, i1 false
  br i1 %or.cond, label %38, label %42

38:                                               ; preds = %25
  %39 = call zeroext i1 @errstart_cold(i32 noundef 21, ptr noundef null) #10
  call void @llvm.assume(i1 %39)
  %40 = call i32 @errcode(i32 noundef 50593922) #9
  %41 = call i32 (ptr, ...) @errmsg(ptr noundef nonnull @.str.11) #9
  call void @errfinish(ptr noundef nonnull @.str.3, i32 noundef 2120, ptr noundef nonnull @__func__.calculate_frame_offsets) #9
  unreachable

42:                                               ; preds = %25, %1
  %43 = and i32 %6, 20480
  %.not22 = icmp eq i32 %43, 0
  br i1 %.not22, label %76, label %44

44:                                               ; preds = %42
  %45 = getelementptr inbounds nuw i8, ptr %0, i64 368
  %46 = load ptr, ptr %45, align 8
  %47 = getelementptr inbounds nuw i8, ptr %8, i64 40
  %48 = load ptr, ptr %47, align 8
  %49 = load ptr, ptr @CurrentMemoryContext, align 8
  store ptr %48, ptr @CurrentMemoryContext, align 8
  %50 = getelementptr inbounds nuw i8, ptr %46, i64 32
  %51 = load ptr, ptr %50, align 8
  %52 = call i64 %51(ptr noundef %46, ptr noundef %8, ptr noundef nonnull %2) #9
  store ptr %49, ptr @CurrentMemoryContext, align 8
  %53 = load i8, ptr %2, align 1, !range !4, !noundef !5
  %54 = trunc nuw i8 %53 to i1
  br i1 %54, label %55, label %59

55:                                               ; preds = %44
  %56 = call zeroext i1 @errstart_cold(i32 noundef 21, ptr noundef null) #10
  call void @llvm.assume(i1 %56)
  %57 = call i32 @errcode(i32 noundef 67108994) #9
  %58 = call i32 (ptr, ...) @errmsg(ptr noundef nonnull @.str.12) #9
  call void @errfinish(ptr noundef nonnull @.str.3, i32 noundef 2133, ptr noundef nonnull @__func__.calculate_frame_offsets) #9
  unreachable

59:                                               ; preds = %44
  %60 = load ptr, ptr %45, align 8
  %61 = getelementptr inbounds nuw i8, ptr %60, i64 40
  %62 = load ptr, ptr %61, align 8
  %63 = call i32 @exprType(ptr noundef %62) #9
  call void @get_typlenbyval(i32 noundef %63, ptr noundef nonnull %3, ptr noundef nonnull %4) #9
  %64 = load i8, ptr %4, align 1, !range !4, !noundef !5
  %65 = trunc nuw i8 %64 to i1
  %66 = load i16, ptr %3, align 2
  %67 = sext i16 %66 to i32
  %68 = call i64 @datumCopy(i64 noundef %52, i1 noundef zeroext %65, i32 noundef %67) #9
  %69 = getelementptr inbounds nuw i8, ptr %0, i64 384
  store i64 %68, ptr %69, align 8
  %70 = and i32 %6, 12
  %.not23 = icmp ne i32 %70, 0
  %71 = icmp slt i64 %52, 0
  %or.cond24 = select i1 %.not23, i1 %71, i1 false
  br i1 %or.cond24, label %72, label %76

72:                                               ; preds = %59
  %73 = call zeroext i1 @errstart_cold(i32 noundef 21, ptr noundef null) #10
  call void @llvm.assume(i1 %73)
  %74 = call i32 @errcode(i32 noundef 50593922) #9
  %75 = call i32 (ptr, ...) @errmsg(ptr noundef nonnull @.str.13) #9
  call void @errfinish(ptr noundef nonnull @.str.3, i32 noundef 2147, ptr noundef nonnull @__func__.calculate_frame_offsets) #9
  unreachable

76:                                               ; preds = %59, %42
  %77 = getelementptr inbounds nuw i8, ptr %0, i64 576
  store i8 0, ptr %77, align 8
  call void @llvm.lifetime.end.p0(i64 1, ptr nonnull %4) #9
  call void @llvm.lifetime.end.p0(i64 2, ptr nonnull %3) #9
  call void @llvm.lifetime.end.p0(i64 1, ptr nonnull %2) #9
  ret void
}